target datalayout = "e-m:e-p270:32:32-p271:32:32-p272:64:64-i64:64-i128:128-f80:128-n8:16:32:64-S128"
target triple = "x86_64-unknown-linux-gnu"

%"class.icu_75::UnicodeString" = type { %"class.icu_75::Replaceable", %"union.icu_75::UnicodeString::StackBufferOrFields" }
%"class.icu_75::Replaceable" = type { %"class.icu_75::UObject" }
%"class.icu_75::UObject" = type { ptr }
%"union.icu_75::UnicodeString::StackBufferOrFields" = type { %struct.anon.0, [32 x i8] }
%struct.anon.0 = type { i16, i32, i32, ptr }
%struct.anon = type { i16, [27 x i16] }

; Function Attrs: mustprogress nounwind uwtable
define linkonce_odr noundef ptr @_ZNK6icu_7513UnicodeString13getArrayStartEv(ptr noundef nonnull align 8 dereferenceable(64) %this) #0 comdat align 2 {
entry:
  %this.addr = alloca ptr, align 8
  store ptr %this, ptr %this.addr, align 8
  %this1 = load ptr, ptr %this.addr, align 8
  %fUnion = getelementptr inbounds %"class.icu_75::UnicodeString", ptr %this1, i32 0, i32 1
  %fLengthAndFlags = getelementptr inbounds %struct.anon.0, ptr %fUnion, i32 0, i32 0
  %0 = load i16, ptr %fLengthAndFlags, align 8
  %conv = sext i16 %0 to i32
  %and = and i32 %conv, 2
  %tobool = icmp ne i32 %and, 0
  br i1 %tobool, label %cond.true, label %cond.false

cond.true:                                        ; preds = %entry
  %fUnion2 = getelementptr inbounds %"class.icu_75::UnicodeString", ptr %this1, i32 0, i32 1
  %fBuffer = getelementptr inbounds %struct.anon, ptr %fUnion2, i32 0, i32 1
  %arraydecay = getelementptr inbounds [27 x i16], ptr %fBuffer, i64 0, i64 0
  br label %cond.end

cond.false:                                       ; preds = %entry
  %fUnion3 = getelementptr inbounds %"class.icu_75::UnicodeString", ptr %this1, i32 0, i32 1
  %fArray = getelementptr inbounds %struct.anon.0, ptr %fUnion3, i32 0, i32 3
  %1 = load ptr, ptr %fArray, align 8
  br label %cond.end

cond.end:                                         ; preds = %cond.false, %cond.true
  %cond = phi ptr [ %arraydecay, %cond.true ], [ %1, %cond.false ]
  ret ptr %cond
}

; Function Attrs: mustprogress uwtable
define linkonce_odr noundef zeroext i16 @_ZNK6icu_7513UnicodeString8doCharAtEi(ptr noundef nonnull align 8 dereferenceable(64) %this, i32 noundef %offset) #1 comdat align 2 {
entry:
  %retval = alloca i16, align 2
  %this.addr = alloca ptr, align 8
  %offset.addr = alloca i32, align 4
  store ptr %this, ptr %this.addr, align 8
  store i32 %offset, ptr %offset.addr, align 4
  %this1 = load ptr, ptr %this.addr, align 8
  %0 = load i32, ptr %offset.addr, align 4
  %call = call noundef i32 @_ZNK6icu_7513UnicodeString6lengthEv(ptr noundef nonnull align 8 dereferenceable(64) %this1)
  %cmp = icmp ult i32 %0, %call
  br i1 %cmp, label %if.then, label %if.else

if.then:                                          ; preds = %entry
  %call2 = call noundef ptr @_ZNK6icu_7513UnicodeString13getArrayStartEv(ptr noundef nonnull align 8 dereferenceable(64) %this1)
  %1 = load i32, ptr %offset.addr, align 4
  %idxprom = sext i32 %1 to i64
  %arrayidx = getelementptr inbounds i16, ptr %call2, i64 %idxprom
  %2 = load i16, ptr %arrayidx, align 2
  store i16 %2, ptr %retval, align 2
  br label %return

if.else:                                          ; preds = %entry
  store i16 -1, ptr %retval, align 2
  br label %return

return:                                           ; preds = %if.else, %if.then
  %3 = load i16, ptr %retval, align 2
  ret i16 %3
}

; Function Attrs: mustprogress nounwind uwtable
define linkonce_odr noundef i32 @_ZNK6icu_7513UnicodeString14getShortLengthEv(ptr noundef nonnull align 8 dereferenceable(64) %this) #0 comdat align 2 {
entry:
  %this.addr = alloca ptr, align 8
  store ptr %this, ptr %this.addr, align 8
  %this1 = load ptr, ptr %this.addr, align 8
  %fUnion = getelementptr inbounds %"class.icu_75::UnicodeString", ptr %this1, i32 0, i32 1
  %fLengthAndFlags = getelementptr inbounds %struct.anon.0, ptr %fUnion, i32 0, i32 0
  %0 = load i16, ptr %fLengthAndFlags, align 8
  %conv = sext i16 %0 to i32
  %shr = ashr i32 %conv, 5
  ret i32 %shr
}

; Function Attrs: mustprogress nounwind uwtable
define linkonce_odr noundef signext i8 @_ZNK6icu_7513UnicodeString14hasShortLengthEv(ptr noundef nonnull align 8 dereferenceable(64) %this) #0 comdat align 2 {
entry:
  %this.addr = alloca ptr, align 8
  store ptr %this, ptr %this.addr, align 8
  %this1 = load ptr, ptr %this.addr, align 8
  %fUnion = getelementptr inbounds %"class.icu_75::UnicodeString", ptr %this1, i32 0, i32 1
  %fLengthAndFlags = getelementptr inbounds %struct.anon.0, ptr %fUnion, i32 0, i32 0
  %0 = load i16, ptr %fLengthAndFlags, align 8
  %conv = sext i16 %0 to i32
  %cmp = icmp sge i32 %conv, 0
  %conv2 = zext i1 %cmp to i8
  ret i8 %conv2
}

; Function Attrs: mustprogress uwtable
define linkonce_odr noundef zeroext i16 @_ZNK6icu_7513UnicodeString6charAtEi(ptr noundef nonnull align 8 dereferenceable(64) %this, i32 noundef %offset) #1 comdat align 2 {
entry:
  %this.addr = alloca ptr, align 8
  %offset.addr = alloca i32, align 4
  store ptr %this, ptr %this.addr, align 8
  store i32 %offset, ptr %offset.addr, align 4
  %this1 = load ptr, ptr %this.addr, align 8
  %0 = load i32, ptr %offset.addr, align 4
  %call = call noundef zeroext i16 @_ZNK6icu_7513UnicodeString8doCharAtEi(ptr noundef nonnull align 8 dereferenceable(64) %this1, i32 noundef %0)
  ret i16 %call
}

; Function Attrs: mustprogress uwtable
define linkonce_odr noundef i32 @_ZNK6icu_7513UnicodeString6lengthEv(ptr noundef nonnull align 8 dereferenceable(64) %this) #1 comdat align 2 {
entry:
  %this.addr = alloca ptr, align 8
  store ptr %this, ptr %this.addr, align 8
  %this1 = load ptr, ptr %this.addr, align 8
  %call = call noundef signext i8 @_ZNK6icu_7513UnicodeString14hasShortLengthEv(ptr noundef nonnull align 8 dereferenceable(64) %this1)
  %tobool = icmp ne i8 %call, 0
  br i1 %tobool, label %cond.true, label %cond.false

cond.true:                                        ; preds = %entry
  %call2 = call noundef i32 @_ZNK6icu_7513UnicodeString14getShortLengthEv(ptr noundef nonnull align 8 dereferenceable(64) %this1)
  br label %cond.end

cond.false:                                       ; preds = %entry
  %fUnion = getelementptr inbounds %"class.icu_75::UnicodeString", ptr %this1, i32 0, i32 1
  %fLength = getelementptr inbounds %struct.anon.0, ptr %fUnion, i32 0, i32 1
  %0 = load i32, ptr %fLength, align 4
  br label %cond.end

cond.end:                                         ; preds = %cond.false, %cond.true
  %cond = phi i32 [ %call2, %cond.true ], [ %0, %cond.false ]
  ret i32 %cond
}

; Function Attrs: mustprogress uwtable
define noundef i32 @_ZN6icu_7511ICU_Utility12parsePatternERKNS_13UnicodeStringEiiS3_Pi(ptr noundef nonnull align 8 dereferenceable(64) %rule, i32 noundef %pos, i32 noundef %limit, ptr noundef nonnull align 8 dereferenceable(64) %pattern, ptr noundef %parsedInts) #1 align 2 {
entry:
  %retval = alloca i32, align 4
  %rule.addr = alloca ptr, align 8
  %pos.addr = alloca i32, align 4
  %limit.addr = alloca i32, align 4
  %pattern.addr = alloca ptr, align 8
  %parsedInts.addr = alloca ptr, align 8
  %p = alloca i32, align 4
  %intCount = alloca i32, align 4
  %i = alloca i32, align 4
  %cpat = alloca i16, align 2
  %c = alloca i16, align 2
  store ptr %rule, ptr %rule.addr, align 8
  store i32 %pos, ptr %pos.addr, align 4
  store i32 %limit, ptr %limit.addr, align 4
  store ptr %pattern, ptr %pattern.addr, align 8
  store ptr %parsedInts, ptr %parsedInts.addr, align 8
  store i32 0, ptr %intCount, align 4
  store i32 0, ptr %i, align 4
  br label %for.cond

for.cond:                                         ; preds = %for.inc, %entry
  %0 = load i32, ptr %i, align 4
  %1 = load ptr, ptr %pattern.addr, align 8
  %call = call noundef i32 @_ZNK6icu_7513UnicodeString6lengthEv(ptr noundef nonnull align 8 dereferenceable(64) %1)
  %cmp = icmp slt i32 %0, %call
  br i1 %cmp, label %for.body, label %for.end

for.body:                                         ; preds = %for.cond
  %2 = load ptr, ptr %pattern.addr, align 8
  %3 = load i32, ptr %i, align 4
  %call1 = call noundef zeroext i16 @_ZNK6icu_7513UnicodeString6charAtEi(ptr noundef nonnull align 8 dereferenceable(64) %2, i32 noundef %3)
  store i16 %call1, ptr %cpat, align 2
  %4 = load i16, ptr %cpat, align 2
  %conv = zext i16 %4 to i32
  switch i32 %conv, label %sw.default [
    i32 32, label %sw.bb
    i32 126, label %sw.bb8
    i32 35, label %sw.bb10
  ]

sw.bb:                                            ; preds = %for.body
  %5 = load i32, ptr %pos.addr, align 4
  %6 = load i32, ptr %limit.addr, align 4
  %cmp2 = icmp sge i32 %5, %6
  br i1 %cmp2, label %if.then, label %if.end

if.then:                                          ; preds = %sw.bb
  store i32 -1, ptr %retval, align 4
  br label %return

if.end:                                           ; preds = %sw.bb
  %7 = load ptr, ptr %rule.addr, align 8
  %8 = load i32, ptr %pos.addr, align 4
  %inc = add nsw i32 %8, 1
  store i32 %inc, ptr %pos.addr, align 4
  %call3 = call noundef zeroext i16 @_ZNK6icu_7513UnicodeString6charAtEi(ptr noundef nonnull align 8 dereferenceable(64) %7, i32 noundef %8)
  store i16 %call3, ptr %c, align 2
  %9 = load i16, ptr %c, align 2
  %conv4 = zext i16 %9 to i32
  %call5 = call noundef signext i8 @_ZN6icu_7512PatternProps12isWhiteSpaceEi(i32 noundef %conv4)
  %tobool = icmp ne i8 %call5, 0
  br i1 %tobool, label %if.end7, label %if.then6

if.then6:                                         ; preds = %if.end
  store i32 -1, ptr %retval, align 4
  br label %return

if.end7:                                          ; preds = %if.end
  br label %sw.bb8

sw.bb8:                                           ; preds = %if.end7, %for.body
  %10 = load ptr, ptr %rule.addr, align 8
  %call9 = call noundef i32 @_ZN6icu_7511ICU_Utility14skipWhitespaceERKNS_13UnicodeStringERia(ptr noundef nonnull align 8 dereferenceable(64) %10, ptr noundef nonnull align 4 dereferenceable(4) %pos.addr, i8 noundef signext 0)
  store i32 %call9, ptr %pos.addr, align 4
  br label %sw.epilog

sw.bb10:                                          ; preds = %for.body
  %11 = load i32, ptr %pos.addr, align 4
  store i32 %11, ptr %p, align 4
  %12 = load ptr, ptr %rule.addr, align 8
  %13 = load i32, ptr %limit.addr, align 4
  %call11 = call noundef i32 @_ZN6icu_7511ICU_Utility12parseIntegerERKNS_13UnicodeStringERii(ptr noundef nonnull align 8 dereferenceable(64) %12, ptr noundef nonnull align 4 dereferenceable(4) %p, i32 noundef %13)
  %14 = load ptr, ptr %parsedInts.addr, align 8
  %15 = load i32, ptr %intCount, align 4
  %inc12 = add nsw i32 %15, 1
  store i32 %inc12, ptr %intCount, align 4
  %idxprom = sext i32 %15 to i64
  %arrayidx = getelementptr inbounds i32, ptr %14, i64 %idxprom
  store i32 %call11, ptr %arrayidx, align 4
  %16 = load i32, ptr %p, align 4
  %17 = load i32, ptr %pos.addr, align 4
  %cmp13 = icmp eq i32 %16, %17
  br i1 %cmp13, label %if.then14, label %if.end15

if.then14:                                        ; preds = %sw.bb10
  store i32 -1, ptr %retval, align 4
  br label %return

if.end15:                                         ; preds = %sw.bb10
  %18 = load i32, ptr %p, align 4
  store i32 %18, ptr %pos.addr, align 4
  br label %sw.epilog

sw.default:                                       ; preds = %for.body
  %19 = load i32, ptr %pos.addr, align 4
  %20 = load i32, ptr %limit.addr, align 4
  %cmp16 = icmp sge i32 %19, %20
  br i1 %cmp16, label %if.then17, label %if.end18

if.then17:                                        ; preds = %sw.default
  store i32 -1, ptr %retval, align 4
  br label %return

if.end18:                                         ; preds = %sw.default
  %21 = load ptr, ptr %rule.addr, align 8
  %22 = load i32, ptr %pos.addr, align 4
  %inc19 = add nsw i32 %22, 1
  store i32 %inc19, ptr %pos.addr, align 4
  %call20 = call noundef zeroext i16 @_ZNK6icu_7513UnicodeString6charAtEi(ptr noundef nonnull align 8 dereferenceable(64) %21, i32 noundef %22)
  %conv21 = zext i16 %call20 to i32
  %call22 = call i32 @u_tolower_75(i32 noundef %conv21)
  %conv23 = trunc i32 %call22 to i16
  store i16 %conv23, ptr %c, align 2
  %23 = load i16, ptr %c, align 2
  %conv24 = zext i16 %23 to i32
  %24 = load i16, ptr %cpat, align 2
  %conv25 = zext i16 %24 to i32
  %cmp26 = icmp ne i32 %conv24, %conv25
  br i1 %cmp26, label %if.then27, label %if.end28

if.then27:                                        ; preds = %if.end18
  store i32 -1, ptr %retval, align 4
  br label %return

if.end28:                                         ; preds = %if.end18
  br label %sw.epilog

sw.epilog:                                        ; preds = %if.end28, %if.end15, %sw.bb8
  br label %for.inc

for.inc:                                          ; preds = %sw.epilog
  %25 = load i32, ptr %i, align 4
  %inc29 = add nsw i32 %25, 1
  store i32 %inc29, ptr %i, align 4
  br label %for.cond, !llvm.loop !6

for.end:                                          ; preds = %for.cond
  %26 = load i32, ptr %pos.addr, align 4
  store i32 %26, ptr %retval, align 4
  br label %return

return:                                           ; preds = %for.end, %if.then27, %if.then17, %if.then14, %if.then6, %if.then
  %27 = load i32, ptr %retval, align 4
  ret i32 %27
}