; Function Attrs: mustprogress uwtable
define noundef i32 @_ZN6icu_7511ICU_Utility12parsePatternERKNS_13UnicodeStringEiiS3_Pi(ptr noundef nonnull align 8 dereferenceable(64) %rule, i32 noundef %pos, i32 noundef %limit, ptr nocapture noundef nonnull readonly align 8 dereferenceable(64) %pattern, ptr nocapture noundef writeonly %parsedInts) local_unnamed_addr #1 align 2 {
entry:
  %pos.addr = alloca i32, align 4
  %p = alloca i32, align 4
  store i32 %pos, ptr %pos.addr, align 4
  %fUnion.i.i = getelementptr inbounds i8, ptr %pattern, i64 8
  %fLength.i = getelementptr inbounds i8, ptr %pattern, i64 12
  %0 = load i16, ptr %fUnion.i.i, align 8
  %cmp.i.i46 = icmp slt i16 %0, 0
  %1 = ashr i16 %0, 5
  %shr.i.i47 = sext i16 %1 to i32
  %2 = load i32, ptr %fLength.i, align 4
  %cond.i48 = select i1 %cmp.i.i46, i32 %2, i32 %shr.i.i47
  %cmp49 = icmp sgt i32 %cond.i48, 0
  br i1 %cmp49, label %for.body.lr.ph, label %return

for.body.lr.ph:                                   ; preds = %entry
  %fBuffer.i.i.i = getelementptr inbounds i8, ptr %pattern, i64 10
  %fArray.i.i.i = getelementptr inbounds i8, ptr %pattern, i64 24
  %fUnion.i.i.i.i14 = getelementptr inbounds i8, ptr %rule, i64 8
  %fLength.i.i.i17 = getelementptr inbounds i8, ptr %rule, i64 12
  %fBuffer.i.i.i23 = getelementptr inbounds i8, ptr %rule, i64 10
  %fArray.i.i.i24 = getelementptr inbounds i8, ptr %rule, i64 24
  br label %for.body

for.body:                                         ; preds = %for.body.lr.ph, %for.inc
  %indvars.iv = phi i64 [ 0, %for.body.lr.ph ], [ %indvars.iv.next, %for.inc ]
  %3 = phi i16 [ %0, %for.body.lr.ph ], [ %25, %for.inc ]
  %intCount.050 = phi i32 [ 0, %for.body.lr.ph ], [ %intCount.1, %for.inc ]
  %4 = and i16 %3, 2
  %tobool.not.i.i.i = icmp eq i16 %4, 0
  %5 = load ptr, ptr %fArray.i.i.i, align 8
  %cond.i2.i.i = select i1 %tobool.not.i.i.i, ptr %5, ptr %fBuffer.i.i.i
  %arrayidx.i.i = getelementptr inbounds i16, ptr %cond.i2.i.i, i64 %indvars.iv
  %6 = load i16, ptr %arrayidx.i.i, align 2
  switch i16 %6, label %sw.default [
    i16 32, label %sw.bb
    i16 126, label %sw.bb8
    i16 35, label %sw.bb10
  ]

sw.bb:                                            ; preds = %for.body
  %7 = load i32, ptr %pos.addr, align 4
  %cmp2.not = icmp slt i32 %7, %limit
  br i1 %cmp2.not, label %if.end, label %return

if.end:                                           ; preds = %sw.bb
  %inc = add nsw i32 %7, 1
  store i32 %inc, ptr %pos.addr, align 4
  %8 = load i16, ptr %fUnion.i.i.i.i14, align 8
  %cmp.i.i.i.i15 = icmp slt i16 %8, 0
  %9 = ashr i16 %8, 5
  %shr.i.i.i.i16 = sext i16 %9 to i32
  %10 = load i32, ptr %fLength.i.i.i17, align 4
  %cond.i.i.i18 = select i1 %cmp.i.i.i.i15, i32 %10, i32 %shr.i.i.i.i16
  %cmp.i.i19 = icmp ugt i32 %cond.i.i.i18, %7
  br i1 %cmp.i.i19, label %if.then.i.i21, label %_ZNK6icu_7513UnicodeString6charAtEi.exit28

if.then.i.i21:                                    ; preds = %if.end
  %11 = and i16 %8, 2
  %tobool.not.i.i.i22 = icmp eq i16 %11, 0
  %12 = load ptr, ptr %fArray.i.i.i24, align 8
  %cond.i2.i.i25 = select i1 %tobool.not.i.i.i22, ptr %12, ptr %fBuffer.i.i.i23
  %idxprom.i.i26 = sext i32 %7 to i64
  %arrayidx.i.i27 = getelementptr inbounds i16, ptr %cond.i2.i.i25, i64 %idxprom.i.i26
  %13 = load i16, ptr %arrayidx.i.i27, align 2
  br label %_ZNK6icu_7513UnicodeString6charAtEi.exit28

_ZNK6icu_7513UnicodeString6charAtEi.exit28:       ; preds = %if.end, %if.then.i.i21
  %retval.0.i.i20 = phi i16 [ %13, %if.then.i.i21 ], [ -1, %if.end ]
  %conv4 = zext i16 %retval.0.i.i20 to i32
  %call5 = call noundef signext i8 @_ZN6icu_7512PatternProps12isWhiteSpaceEi(i32 noundef %conv4)
  %tobool.not = icmp eq i8 %call5, 0
  br i1 %tobool.not, label %return, label %sw.bb8

sw.bb8:                                           ; preds = %_ZNK6icu_7513UnicodeString6charAtEi.exit28, %for.body
  %call9 = call noundef i32 @_ZN6icu_7511ICU_Utility14skipWhitespaceERKNS_13UnicodeStringERia(ptr noundef nonnull align 8 dereferenceable(64) %rule, ptr noundef nonnull align 4 dereferenceable(4) %pos.addr, i8 noundef signext 0)
  store i32 %call9, ptr %pos.addr, align 4
  br label %for.inc

sw.bb10:                                          ; preds = %for.body
  %14 = load i32, ptr %pos.addr, align 4
  store i32 %14, ptr %p, align 4
  %call11 = call noundef i32 @_ZN6icu_7511ICU_Utility12parseIntegerERKNS_13UnicodeStringERii(ptr noundef nonnull align 8 dereferenceable(64) %rule, ptr noundef nonnull align 4 dereferenceable(4) %p, i32 noundef %limit), !range !6
  %idxprom = sext i32 %intCount.050 to i64
  %arrayidx = getelementptr inbounds i32, ptr %parsedInts, i64 %idxprom
  store i32 %call11, ptr %arrayidx, align 4
  %15 = load i32, ptr %p, align 4
  %16 = load i32, ptr %pos.addr, align 4
  %cmp13 = icmp eq i32 %15, %16
  br i1 %cmp13, label %return, label %if.end15

if.end15:                                         ; preds = %sw.bb10
  %inc12 = add nsw i32 %intCount.050, 1
  store i32 %15, ptr %pos.addr, align 4
  br label %for.inc

sw.default:                                       ; preds = %for.body
  %17 = load i32, ptr %pos.addr, align 4
  %cmp16.not = icmp slt i32 %17, %limit
  br i1 %cmp16.not, label %if.end18, label %return

if.end18:                                         ; preds = %sw.default
  %inc19 = add nsw i32 %17, 1
  store i32 %inc19, ptr %pos.addr, align 4
  %18 = load i16, ptr %fUnion.i.i.i.i14, align 8
  %cmp.i.i.i.i30 = icmp slt i16 %18, 0
  %19 = ashr i16 %18, 5
  %shr.i.i.i.i31 = sext i16 %19 to i32
  %20 = load i32, ptr %fLength.i.i.i17, align 4
  %cond.i.i.i33 = select i1 %cmp.i.i.i.i30, i32 %20, i32 %shr.i.i.i.i31
  %cmp.i.i34 = icmp ugt i32 %cond.i.i.i33, %17
  br i1 %cmp.i.i34, label %if.then.i.i36, label %_ZNK6icu_7513UnicodeString6charAtEi.exit43

if.then.i.i36:                                    ; preds = %if.end18
  %21 = and i16 %18, 2
  %tobool.not.i.i.i37 = icmp eq i16 %21, 0
  %22 = load ptr, ptr %fArray.i.i.i24, align 8
  %cond.i2.i.i40 = select i1 %tobool.not.i.i.i37, ptr %22, ptr %fBuffer.i.i.i23
  %idxprom.i.i41 = sext i32 %17 to i64
  %arrayidx.i.i42 = getelementptr inbounds i16, ptr %cond.i2.i.i40, i64 %idxprom.i.i41
  %23 = load i16, ptr %arrayidx.i.i42, align 2
  br label %_ZNK6icu_7513UnicodeString6charAtEi.exit43

_ZNK6icu_7513UnicodeString6charAtEi.exit43:       ; preds = %if.end18, %if.then.i.i36
  %retval.0.i.i35 = phi i16 [ %23, %if.then.i.i36 ], [ -1, %if.end18 ]
  %conv21 = zext i16 %retval.0.i.i35 to i32
  %call22 = call i32 @u_tolower_75(i32 noundef %conv21)
  %24 = trunc i32 %call22 to i16
  %cmp26.not = icmp eq i16 %6, %24
  br i1 %cmp26.not, label %for.inc, label %return

for.inc:                                          ; preds = %sw.bb8, %if.end15, %_ZNK6icu_7513UnicodeString6charAtEi.exit43
  %intCount.1 = phi i32 [ %intCount.050, %_ZNK6icu_7513UnicodeString6charAtEi.exit43 ], [ %inc12, %if.end15 ], [ %intCount.050, %sw.bb8 ]
  %indvars.iv.next = add nuw nsw i64 %indvars.iv, 1
  %25 = load i16, ptr %fUnion.i.i, align 8
  %cmp.i.i = icmp slt i16 %25, 0
  %26 = ashr i16 %25, 5
  %shr.i.i = sext i16 %26 to i32
  %27 = load i32, ptr %fLength.i, align 4
  %cond.i = select i1 %cmp.i.i, i32 %27, i32 %shr.i.i
  %28 = sext i32 %cond.i to i64
  %cmp = icmp slt i64 %indvars.iv.next, %28
  br i1 %cmp, label %for.body, label %for.end.loopexit, !llvm.loop !7

for.end.loopexit:                                 ; preds = %for.inc
  %.pre = load i32, ptr %pos.addr, align 4
  br label %return

return:                                           ; preds = %_ZNK6icu_7513UnicodeString6charAtEi.exit43, %sw.default, %sw.bb10, %_ZNK6icu_7513UnicodeString6charAtEi.exit28, %sw.bb, %entry, %for.end.loopexit
  %retval.0 = phi i32 [ %.pre, %for.end.loopexit ], [ %pos, %entry ], [ -1, %sw.bb ], [ -1, %_ZNK6icu_7513UnicodeString6charAtEi.exit28 ], [ -1, %sw.bb10 ], [ -1, %sw.default ], [ -1, %_ZNK6icu_7513UnicodeString6charAtEi.exit43 ]
  ret i32 %retval.0
}